
program:     file format elf32-i386


Disassembly of section .init:

08049000 <_init>:
 8049000:	53                   	push   ebx
 8049001:	83 ec 08             	sub    esp,0x8
 8049004:	e8 c7 00 00 00       	call   80490d0 <__x86.get_pc_thunk.bx>
 8049009:	81 c3 f7 2f 00 00    	add    ebx,0x2ff7
 804900f:	8b 83 fc ff ff ff    	mov    eax,DWORD PTR [ebx-0x4]
 8049015:	85 c0                	test   eax,eax
 8049017:	74 05                	je     804901e <_init+0x1e>
 8049019:	e8 52 00 00 00       	call   8049070 <__gmon_start__@plt>
 804901e:	83 c4 08             	add    esp,0x8
 8049021:	5b                   	pop    ebx
 8049022:	c3                   	ret    

Disassembly of section .plt:

08049030 <.plt>:
 8049030:	ff 35 04 c0 04 08    	push   DWORD PTR ds:0x804c004
 8049036:	ff 25 08 c0 04 08    	jmp    DWORD PTR ds:0x804c008
 804903c:	00 00                	add    BYTE PTR [eax],al
	...

08049040 <gets@plt>:
 8049040:	ff 25 0c c0 04 08    	jmp    DWORD PTR ds:0x804c00c
 8049046:	68 00 00 00 00       	push   0x0
 804904b:	e9 e0 ff ff ff       	jmp    8049030 <.plt>

08049050 <puts@plt>:
 8049050:	ff 25 10 c0 04 08    	jmp    DWORD PTR ds:0x804c010
 8049056:	68 08 00 00 00       	push   0x8
 804905b:	e9 d0 ff ff ff       	jmp    8049030 <.plt>

08049060 <__libc_start_main@plt>:
 8049060:	ff 25 14 c0 04 08    	jmp    DWORD PTR ds:0x804c014
 8049066:	68 10 00 00 00       	push   0x10
 804906b:	e9 c0 ff ff ff       	jmp    8049030 <.plt>

Disassembly of section .plt.got:

08049070 <__gmon_start__@plt>:
 8049070:	ff 25 fc bf 04 08    	jmp    DWORD PTR ds:0x804bffc
 8049076:	66 90                	xchg   ax,ax

Disassembly of section .text:

08049080 <_start>:
 8049080:	31 ed                	xor    ebp,ebp
 8049082:	5e                   	pop    esi
 8049083:	89 e1                	mov    ecx,esp
 8049085:	83 e4 f0             	and    esp,0xfffffff0
 8049088:	50                   	push   eax
 8049089:	54                   	push   esp
 804908a:	52                   	push   edx
 804908b:	e8 23 00 00 00       	call   80490b3 <_start+0x33>
 8049090:	81 c3 70 2f 00 00    	add    ebx,0x2f70
 8049096:	8d 83 80 d2 ff ff    	lea    eax,[ebx-0x2d80]
 804909c:	50                   	push   eax
 804909d:	8d 83 20 d2 ff ff    	lea    eax,[ebx-0x2de0]
 80490a3:	50                   	push   eax
 80490a4:	51                   	push   ecx
 80490a5:	56                   	push   esi
 80490a6:	c7 c0 d1 91 04 08    	mov    eax,0x80491d1
 80490ac:	50                   	push   eax
 80490ad:	e8 ae ff ff ff       	call   8049060 <__libc_start_main@plt>
 80490b2:	f4                   	hlt    
 80490b3:	8b 1c 24             	mov    ebx,DWORD PTR [esp]
 80490b6:	c3                   	ret    
 80490b7:	66 90                	xchg   ax,ax
 80490b9:	66 90                	xchg   ax,ax
 80490bb:	66 90                	xchg   ax,ax
 80490bd:	66 90                	xchg   ax,ax
 80490bf:	90                   	nop

080490c0 <_dl_relocate_static_pie>:
 80490c0:	f3 c3                	repz ret 
 80490c2:	66 90                	xchg   ax,ax
 80490c4:	66 90                	xchg   ax,ax
 80490c6:	66 90                	xchg   ax,ax
 80490c8:	66 90                	xchg   ax,ax
 80490ca:	66 90                	xchg   ax,ax
 80490cc:	66 90                	xchg   ax,ax
 80490ce:	66 90                	xchg   ax,ax

080490d0 <__x86.get_pc_thunk.bx>:
 80490d0:	8b 1c 24             	mov    ebx,DWORD PTR [esp]
 80490d3:	c3                   	ret    
 80490d4:	66 90                	xchg   ax,ax
 80490d6:	66 90                	xchg   ax,ax
 80490d8:	66 90                	xchg   ax,ax
 80490da:	66 90                	xchg   ax,ax
 80490dc:	66 90                	xchg   ax,ax
 80490de:	66 90                	xchg   ax,ax

080490e0 <deregister_tm_clones>:
 80490e0:	b8 20 c0 04 08       	mov    eax,0x804c020
 80490e5:	3d 20 c0 04 08       	cmp    eax,0x804c020
 80490ea:	74 24                	je     8049110 <deregister_tm_clones+0x30>
 80490ec:	b8 00 00 00 00       	mov    eax,0x0
 80490f1:	85 c0                	test   eax,eax
 80490f3:	74 1b                	je     8049110 <deregister_tm_clones+0x30>
 80490f5:	55                   	push   ebp
 80490f6:	89 e5                	mov    ebp,esp
 80490f8:	83 ec 14             	sub    esp,0x14
 80490fb:	68 20 c0 04 08       	push   0x804c020
 8049100:	ff d0                	call   eax
 8049102:	83 c4 10             	add    esp,0x10
 8049105:	c9                   	leave  
 8049106:	c3                   	ret    
 8049107:	8d b4 26 00 00 00 00 	lea    esi,[esi+eiz*1+0x0]
 804910e:	66 90                	xchg   ax,ax
 8049110:	c3                   	ret    
 8049111:	8d b4 26 00 00 00 00 	lea    esi,[esi+eiz*1+0x0]
 8049118:	8d b4 26 00 00 00 00 	lea    esi,[esi+eiz*1+0x0]
 804911f:	90                   	nop

08049120 <register_tm_clones>:
 8049120:	b8 20 c0 04 08       	mov    eax,0x804c020
 8049125:	2d 20 c0 04 08       	sub    eax,0x804c020
 804912a:	c1 f8 02             	sar    eax,0x2
 804912d:	89 c2                	mov    edx,eax
 804912f:	c1 ea 1f             	shr    edx,0x1f
 8049132:	01 d0                	add    eax,edx
 8049134:	d1 f8                	sar    eax,1
 8049136:	74 20                	je     8049158 <register_tm_clones+0x38>
 8049138:	ba 00 00 00 00       	mov    edx,0x0
 804913d:	85 d2                	test   edx,edx
 804913f:	74 17                	je     8049158 <register_tm_clones+0x38>
 8049141:	55                   	push   ebp
 8049142:	89 e5                	mov    ebp,esp
 8049144:	83 ec 10             	sub    esp,0x10
 8049147:	50                   	push   eax
 8049148:	68 20 c0 04 08       	push   0x804c020
 804914d:	ff d2                	call   edx
 804914f:	83 c4 10             	add    esp,0x10
 8049152:	c9                   	leave  
 8049153:	c3                   	ret    
 8049154:	8d 74 26 00          	lea    esi,[esi+eiz*1+0x0]
 8049158:	c3                   	ret    
 8049159:	8d b4 26 00 00 00 00 	lea    esi,[esi+eiz*1+0x0]

08049160 <__do_global_dtors_aux>:
 8049160:	80 3d 20 c0 04 08 00 	cmp    BYTE PTR ds:0x804c020,0x0
 8049167:	75 17                	jne    8049180 <__do_global_dtors_aux+0x20>
 8049169:	55                   	push   ebp
 804916a:	89 e5                	mov    ebp,esp
 804916c:	83 ec 08             	sub    esp,0x8
 804916f:	e8 6c ff ff ff       	call   80490e0 <deregister_tm_clones>
 8049174:	c6 05 20 c0 04 08 01 	mov    BYTE PTR ds:0x804c020,0x1
 804917b:	c9                   	leave  
 804917c:	c3                   	ret    
 804917d:	8d 76 00             	lea    esi,[esi+0x0]
 8049180:	c3                   	ret    
 8049181:	8d b4 26 00 00 00 00 	lea    esi,[esi+eiz*1+0x0]
 8049188:	8d b4 26 00 00 00 00 	lea    esi,[esi+eiz*1+0x0]
 804918f:	90                   	nop

08049190 <frame_dummy>:
 8049190:	eb 8e                	jmp    8049120 <register_tm_clones>

08049192 <vuln>:
 8049192:	55                   	push   ebp
 8049193:	89 e5                	mov    ebp,esp
 8049195:	53                   	push   ebx
 8049196:	81 ec a4 00 00 00    	sub    esp,0xa4
 804919c:	e8 2f ff ff ff       	call   80490d0 <__x86.get_pc_thunk.bx>
 80491a1:	81 c3 5f 2e 00 00    	add    ebx,0x2e5f
 80491a7:	83 ec 0c             	sub    esp,0xc
 80491aa:	8d 83 08 e0 ff ff    	lea    eax,[ebx-0x1ff8]
 80491b0:	50                   	push   eax
 80491b1:	e8 9a fe ff ff       	call   8049050 <puts@plt>
 80491b6:	83 c4 10             	add    esp,0x10
 80491b9:	83 ec 0c             	sub    esp,0xc
 80491bc:	8d 85 58 ff ff ff    	lea    eax,[ebp-0xa8]
 80491c2:	50                   	push   eax
 80491c3:	e8 78 fe ff ff       	call   8049040 <gets@plt>
 80491c8:	83 c4 10             	add    esp,0x10
 80491cb:	90                   	nop
 80491cc:	8b 5d fc             	mov    ebx,DWORD PTR [ebp-0x4]
 80491cf:	c9                   	leave  
 80491d0:	c3                   	ret    

080491d1 <main>:
 80491d1:	8d 4c 24 04          	lea    ecx,[esp+0x4]
 80491d5:	83 e4 f0             	and    esp,0xfffffff0
 80491d8:	ff 71 fc             	push   DWORD PTR [ecx-0x4]
 80491db:	55                   	push   ebp
 80491dc:	89 e5                	mov    ebp,esp
 80491de:	53                   	push   ebx
 80491df:	51                   	push   ecx
 80491e0:	e8 eb fe ff ff       	call   80490d0 <__x86.get_pc_thunk.bx>
 80491e5:	81 c3 1b 2e 00 00    	add    ebx,0x2e1b
 80491eb:	e8 a2 ff ff ff       	call   8049192 <vuln>
 80491f0:	83 ec 0c             	sub    esp,0xc
 80491f3:	8d 83 1c e0 ff ff    	lea    eax,[ebx-0x1fe4]
 80491f9:	50                   	push   eax
 80491fa:	e8 51 fe ff ff       	call   8049050 <puts@plt>
 80491ff:	83 c4 10             	add    esp,0x10
 8049202:	b8 01 00 00 00       	mov    eax,0x1
 8049207:	8d 65 f8             	lea    esp,[ebp-0x8]
 804920a:	59                   	pop    ecx
 804920b:	5b                   	pop    ebx
 804920c:	5d                   	pop    ebp
 804920d:	8d 61 fc             	lea    esp,[ecx-0x4]
 8049210:	c3                   	ret    
 8049211:	66 90                	xchg   ax,ax
 8049213:	66 90                	xchg   ax,ax
 8049215:	66 90                	xchg   ax,ax
 8049217:	66 90                	xchg   ax,ax
 8049219:	66 90                	xchg   ax,ax
 804921b:	66 90                	xchg   ax,ax
 804921d:	66 90                	xchg   ax,ax
 804921f:	90                   	nop

08049220 <__libc_csu_init>:
 8049220:	55                   	push   ebp
 8049221:	57                   	push   edi
 8049222:	56                   	push   esi
 8049223:	53                   	push   ebx
 8049224:	e8 a7 fe ff ff       	call   80490d0 <__x86.get_pc_thunk.bx>
 8049229:	81 c3 d7 2d 00 00    	add    ebx,0x2dd7
 804922f:	83 ec 0c             	sub    esp,0xc
 8049232:	8b 6c 24 28          	mov    ebp,DWORD PTR [esp+0x28]
 8049236:	8d b3 10 ff ff ff    	lea    esi,[ebx-0xf0]
 804923c:	e8 bf fd ff ff       	call   8049000 <_init>
 8049241:	8d 83 0c ff ff ff    	lea    eax,[ebx-0xf4]
 8049247:	29 c6                	sub    esi,eax
 8049249:	c1 fe 02             	sar    esi,0x2
 804924c:	85 f6                	test   esi,esi
 804924e:	74 25                	je     8049275 <__libc_csu_init+0x55>
 8049250:	31 ff                	xor    edi,edi
 8049252:	8d b6 00 00 00 00    	lea    esi,[esi+0x0]
 8049258:	83 ec 04             	sub    esp,0x4
 804925b:	55                   	push   ebp
 804925c:	ff 74 24 2c          	push   DWORD PTR [esp+0x2c]
 8049260:	ff 74 24 2c          	push   DWORD PTR [esp+0x2c]
 8049264:	ff 94 bb 0c ff ff ff 	call   DWORD PTR [ebx+edi*4-0xf4]
 804926b:	83 c7 01             	add    edi,0x1
 804926e:	83 c4 10             	add    esp,0x10
 8049271:	39 fe                	cmp    esi,edi
 8049273:	75 e3                	jne    8049258 <__libc_csu_init+0x38>
 8049275:	83 c4 0c             	add    esp,0xc
 8049278:	5b                   	pop    ebx
 8049279:	5e                   	pop    esi
 804927a:	5f                   	pop    edi
 804927b:	5d                   	pop    ebp
 804927c:	c3                   	ret    
 804927d:	8d 76 00             	lea    esi,[esi+0x0]

08049280 <__libc_csu_fini>:
 8049280:	f3 c3                	repz ret 

Disassembly of section .fini:

08049284 <_fini>:
 8049284:	53                   	push   ebx
 8049285:	83 ec 08             	sub    esp,0x8
 8049288:	e8 43 fe ff ff       	call   80490d0 <__x86.get_pc_thunk.bx>
 804928d:	81 c3 73 2d 00 00    	add    ebx,0x2d73
 8049293:	83 c4 08             	add    esp,0x8
 8049296:	5b                   	pop    ebx
 8049297:	c3                   	ret    
