
program:     file format elf64-x86-64


Disassembly of section .init:

0000000000401000 <_init>:
  401000:	48 83 ec 08          	sub    rsp,0x8
  401004:	48 8b 05 ed 2f 00 00 	mov    rax,QWORD PTR [rip+0x2fed]        # 403ff8 <__gmon_start__>
  40100b:	48 85 c0             	test   rax,rax
  40100e:	74 02                	je     401012 <_init+0x12>
  401010:	ff d0                	call   rax
  401012:	48 83 c4 08          	add    rsp,0x8
  401016:	c3                   	ret    

Disassembly of section .plt:

0000000000401020 <.plt>:
  401020:	ff 35 e2 2f 00 00    	push   QWORD PTR [rip+0x2fe2]        # 404008 <_GLOBAL_OFFSET_TABLE_+0x8>
  401026:	ff 25 e4 2f 00 00    	jmp    QWORD PTR [rip+0x2fe4]        # 404010 <_GLOBAL_OFFSET_TABLE_+0x10>
  40102c:	0f 1f 40 00          	nop    DWORD PTR [rax+0x0]

0000000000401030 <puts@plt>:
  401030:	ff 25 e2 2f 00 00    	jmp    QWORD PTR [rip+0x2fe2]        # 404018 <puts@GLIBC_2.2.5>
  401036:	68 00 00 00 00       	push   0x0
  40103b:	e9 e0 ff ff ff       	jmp    401020 <.plt>

0000000000401040 <__stack_chk_fail@plt>:
  401040:	ff 25 da 2f 00 00    	jmp    QWORD PTR [rip+0x2fda]        # 404020 <__stack_chk_fail@GLIBC_2.4>
  401046:	68 01 00 00 00       	push   0x1
  40104b:	e9 d0 ff ff ff       	jmp    401020 <.plt>

0000000000401050 <gets@plt>:
  401050:	ff 25 d2 2f 00 00    	jmp    QWORD PTR [rip+0x2fd2]        # 404028 <gets@GLIBC_2.2.5>
  401056:	68 02 00 00 00       	push   0x2
  40105b:	e9 c0 ff ff ff       	jmp    401020 <.plt>

Disassembly of section .text:

0000000000401060 <_start>:
  401060:	31 ed                	xor    ebp,ebp
  401062:	49 89 d1             	mov    r9,rdx
  401065:	5e                   	pop    rsi
  401066:	48 89 e2             	mov    rdx,rsp
  401069:	48 83 e4 f0          	and    rsp,0xfffffffffffffff0
  40106d:	50                   	push   rax
  40106e:	54                   	push   rsp
  40106f:	49 c7 c0 30 12 40 00 	mov    r8,0x401230
  401076:	48 c7 c1 c0 11 40 00 	mov    rcx,0x4011c0
  40107d:	48 c7 c7 93 11 40 00 	mov    rdi,0x401193
  401084:	ff 15 66 2f 00 00    	call   QWORD PTR [rip+0x2f66]        # 403ff0 <__libc_start_main@GLIBC_2.2.5>
  40108a:	f4                   	hlt    
  40108b:	0f 1f 44 00 00       	nop    DWORD PTR [rax+rax*1+0x0]

0000000000401090 <_dl_relocate_static_pie>:
  401090:	f3 c3                	repz ret 
  401092:	66 2e 0f 1f 84 00 00 	nop    WORD PTR cs:[rax+rax*1+0x0]
  401099:	00 00 00 
  40109c:	0f 1f 40 00          	nop    DWORD PTR [rax+0x0]

00000000004010a0 <deregister_tm_clones>:
  4010a0:	b8 40 40 40 00       	mov    eax,0x404040
  4010a5:	48 3d 40 40 40 00    	cmp    rax,0x404040
  4010ab:	74 13                	je     4010c0 <deregister_tm_clones+0x20>
  4010ad:	b8 00 00 00 00       	mov    eax,0x0
  4010b2:	48 85 c0             	test   rax,rax
  4010b5:	74 09                	je     4010c0 <deregister_tm_clones+0x20>
  4010b7:	bf 40 40 40 00       	mov    edi,0x404040
  4010bc:	ff e0                	jmp    rax
  4010be:	66 90                	xchg   ax,ax
  4010c0:	c3                   	ret    
  4010c1:	66 66 2e 0f 1f 84 00 	data16 nop WORD PTR cs:[rax+rax*1+0x0]
  4010c8:	00 00 00 00 
  4010cc:	0f 1f 40 00          	nop    DWORD PTR [rax+0x0]

00000000004010d0 <register_tm_clones>:
  4010d0:	be 40 40 40 00       	mov    esi,0x404040
  4010d5:	48 81 ee 40 40 40 00 	sub    rsi,0x404040
  4010dc:	48 c1 fe 03          	sar    rsi,0x3
  4010e0:	48 89 f0             	mov    rax,rsi
  4010e3:	48 c1 e8 3f          	shr    rax,0x3f
  4010e7:	48 01 c6             	add    rsi,rax
  4010ea:	48 d1 fe             	sar    rsi,1
  4010ed:	74 11                	je     401100 <register_tm_clones+0x30>
  4010ef:	b8 00 00 00 00       	mov    eax,0x0
  4010f4:	48 85 c0             	test   rax,rax
  4010f7:	74 07                	je     401100 <register_tm_clones+0x30>
  4010f9:	bf 40 40 40 00       	mov    edi,0x404040
  4010fe:	ff e0                	jmp    rax
  401100:	c3                   	ret    
  401101:	66 66 2e 0f 1f 84 00 	data16 nop WORD PTR cs:[rax+rax*1+0x0]
  401108:	00 00 00 00 
  40110c:	0f 1f 40 00          	nop    DWORD PTR [rax+0x0]

0000000000401110 <__do_global_dtors_aux>:
  401110:	80 3d 29 2f 00 00 00 	cmp    BYTE PTR [rip+0x2f29],0x0        # 404040 <__TMC_END__>
  401117:	75 17                	jne    401130 <__do_global_dtors_aux+0x20>
  401119:	55                   	push   rbp
  40111a:	48 89 e5             	mov    rbp,rsp
  40111d:	e8 7e ff ff ff       	call   4010a0 <deregister_tm_clones>
  401122:	c6 05 17 2f 00 00 01 	mov    BYTE PTR [rip+0x2f17],0x1        # 404040 <__TMC_END__>
  401129:	5d                   	pop    rbp
  40112a:	c3                   	ret    
  40112b:	0f 1f 44 00 00       	nop    DWORD PTR [rax+rax*1+0x0]
  401130:	c3                   	ret    
  401131:	66 66 2e 0f 1f 84 00 	data16 nop WORD PTR cs:[rax+rax*1+0x0]
  401138:	00 00 00 00 
  40113c:	0f 1f 40 00          	nop    DWORD PTR [rax+0x0]

0000000000401140 <frame_dummy>:
  401140:	eb 8e                	jmp    4010d0 <register_tm_clones>

0000000000401142 <vuln>:
  401142:	55                   	push   rbp
  401143:	48 89 e5             	mov    rbp,rsp
  401146:	48 81 ec b0 00 00 00 	sub    rsp,0xb0
  40114d:	64 48 8b 04 25 28 00 	mov    rax,QWORD PTR fs:0x28
  401154:	00 00 
  401156:	48 89 45 f8          	mov    QWORD PTR [rbp-0x8],rax
  40115a:	31 c0                	xor    eax,eax
  40115c:	48 8d 3d a1 0e 00 00 	lea    rdi,[rip+0xea1]        # 402004 <_IO_stdin_used+0x4>
  401163:	e8 c8 fe ff ff       	call   401030 <puts@plt>
  401168:	48 8d 85 50 ff ff ff 	lea    rax,[rbp-0xb0]
  40116f:	48 89 c7             	mov    rdi,rax
  401172:	b8 00 00 00 00       	mov    eax,0x0
  401177:	e8 d4 fe ff ff       	call   401050 <gets@plt>
  40117c:	90                   	nop
  40117d:	48 8b 45 f8          	mov    rax,QWORD PTR [rbp-0x8]
  401181:	64 48 33 04 25 28 00 	xor    rax,QWORD PTR fs:0x28
  401188:	00 00 
  40118a:	74 05                	je     401191 <vuln+0x4f>
  40118c:	e8 af fe ff ff       	call   401040 <__stack_chk_fail@plt>
  401191:	c9                   	leave  
  401192:	c3                   	ret    

0000000000401193 <main>:
  401193:	55                   	push   rbp
  401194:	48 89 e5             	mov    rbp,rsp
  401197:	b8 00 00 00 00       	mov    eax,0x0
  40119c:	e8 a1 ff ff ff       	call   401142 <vuln>
  4011a1:	48 8d 3d 70 0e 00 00 	lea    rdi,[rip+0xe70]        # 402018 <_IO_stdin_used+0x18>
  4011a8:	e8 83 fe ff ff       	call   401030 <puts@plt>
  4011ad:	b8 01 00 00 00       	mov    eax,0x1
  4011b2:	5d                   	pop    rbp
  4011b3:	c3                   	ret    
  4011b4:	66 2e 0f 1f 84 00 00 	nop    WORD PTR cs:[rax+rax*1+0x0]
  4011bb:	00 00 00 
  4011be:	66 90                	xchg   ax,ax

00000000004011c0 <__libc_csu_init>:
  4011c0:	41 57                	push   r15
  4011c2:	41 56                	push   r14
  4011c4:	49 89 d7             	mov    r15,rdx
  4011c7:	41 55                	push   r13
  4011c9:	41 54                	push   r12
  4011cb:	4c 8d 25 3e 2c 00 00 	lea    r12,[rip+0x2c3e]        # 403e10 <__frame_dummy_init_array_entry>
  4011d2:	55                   	push   rbp
  4011d3:	48 8d 2d 3e 2c 00 00 	lea    rbp,[rip+0x2c3e]        # 403e18 <__init_array_end>
  4011da:	53                   	push   rbx
  4011db:	41 89 fd             	mov    r13d,edi
  4011de:	49 89 f6             	mov    r14,rsi
  4011e1:	4c 29 e5             	sub    rbp,r12
  4011e4:	48 83 ec 08          	sub    rsp,0x8
  4011e8:	48 c1 fd 03          	sar    rbp,0x3
  4011ec:	e8 0f fe ff ff       	call   401000 <_init>
  4011f1:	48 85 ed             	test   rbp,rbp
  4011f4:	74 20                	je     401216 <__libc_csu_init+0x56>
  4011f6:	31 db                	xor    ebx,ebx
  4011f8:	0f 1f 84 00 00 00 00 	nop    DWORD PTR [rax+rax*1+0x0]
  4011ff:	00 
  401200:	4c 89 fa             	mov    rdx,r15
  401203:	4c 89 f6             	mov    rsi,r14
  401206:	44 89 ef             	mov    edi,r13d
  401209:	41 ff 14 dc          	call   QWORD PTR [r12+rbx*8]
  40120d:	48 83 c3 01          	add    rbx,0x1
  401211:	48 39 dd             	cmp    rbp,rbx
  401214:	75 ea                	jne    401200 <__libc_csu_init+0x40>
  401216:	48 83 c4 08          	add    rsp,0x8
  40121a:	5b                   	pop    rbx
  40121b:	5d                   	pop    rbp
  40121c:	41 5c                	pop    r12
  40121e:	41 5d                	pop    r13
  401220:	41 5e                	pop    r14
  401222:	41 5f                	pop    r15
  401224:	c3                   	ret    
  401225:	66 66 2e 0f 1f 84 00 	data16 nop WORD PTR cs:[rax+rax*1+0x0]
  40122c:	00 00 00 00 

0000000000401230 <__libc_csu_fini>:
  401230:	f3 c3                	repz ret 

Disassembly of section .fini:

0000000000401234 <_fini>:
  401234:	48 83 ec 08          	sub    rsp,0x8
  401238:	48 83 c4 08          	add    rsp,0x8
  40123c:	c3                   	ret    
