
program:     file format elf64-x86-64


Disassembly of section .init:

0000000000401000 <_init>:
  401000:	48 83 ec 08          	sub    rsp,0x8
  401004:	48 8b 05 ed 2f 00 00 	mov    rax,QWORD PTR [rip+0x2fed]        # 403ff8 <__gmon_start__>
  40100b:	48 85 c0             	test   rax,rax
  40100e:	74 02                	je     401012 <_init+0x12>
  401010:	ff d0                	call   rax
  401012:	48 83 c4 08          	add    rsp,0x8
  401016:	c3                   	ret    

Disassembly of section .plt:

0000000000401020 <.plt>:
  401020:	ff 35 e2 2f 00 00    	push   QWORD PTR [rip+0x2fe2]        # 404008 <_GLOBAL_OFFSET_TABLE_+0x8>
  401026:	ff 25 e4 2f 00 00    	jmp    QWORD PTR [rip+0x2fe4]        # 404010 <_GLOBAL_OFFSET_TABLE_+0x10>
  40102c:	0f 1f 40 00          	nop    DWORD PTR [rax+0x0]

0000000000401030 <puts@plt>:
  401030:	ff 25 e2 2f 00 00    	jmp    QWORD PTR [rip+0x2fe2]        # 404018 <puts@GLIBC_2.2.5>
  401036:	68 00 00 00 00       	push   0x0
  40103b:	e9 e0 ff ff ff       	jmp    401020 <.plt>

0000000000401040 <__stack_chk_fail@plt>:
  401040:	ff 25 da 2f 00 00    	jmp    QWORD PTR [rip+0x2fda]        # 404020 <__stack_chk_fail@GLIBC_2.4>
  401046:	68 01 00 00 00       	push   0x1
  40104b:	e9 d0 ff ff ff       	jmp    401020 <.plt>

0000000000401050 <printf@plt>:
  401050:	ff 25 d2 2f 00 00    	jmp    QWORD PTR [rip+0x2fd2]        # 404028 <printf@GLIBC_2.2.5>
  401056:	68 02 00 00 00       	push   0x2
  40105b:	e9 c0 ff ff ff       	jmp    401020 <.plt>

0000000000401060 <gets@plt>:
  401060:	ff 25 ca 2f 00 00    	jmp    QWORD PTR [rip+0x2fca]        # 404030 <gets@GLIBC_2.2.5>
  401066:	68 03 00 00 00       	push   0x3
  40106b:	e9 b0 ff ff ff       	jmp    401020 <.plt>

Disassembly of section .text:

0000000000401070 <_start>:
  401070:	31 ed                	xor    ebp,ebp
  401072:	49 89 d1             	mov    r9,rdx
  401075:	5e                   	pop    rsi
  401076:	48 89 e2             	mov    rdx,rsp
  401079:	48 83 e4 f0          	and    rsp,0xfffffffffffffff0
  40107d:	50                   	push   rax
  40107e:	54                   	push   rsp
  40107f:	49 c7 c0 70 12 40 00 	mov    r8,0x401270
  401086:	48 c7 c1 00 12 40 00 	mov    rcx,0x401200
  40108d:	48 c7 c7 e8 11 40 00 	mov    rdi,0x4011e8
  401094:	ff 15 56 2f 00 00    	call   QWORD PTR [rip+0x2f56]        # 403ff0 <__libc_start_main@GLIBC_2.2.5>
  40109a:	f4                   	hlt    
  40109b:	0f 1f 44 00 00       	nop    DWORD PTR [rax+rax*1+0x0]

00000000004010a0 <_dl_relocate_static_pie>:
  4010a0:	f3 c3                	repz ret 
  4010a2:	66 2e 0f 1f 84 00 00 	nop    WORD PTR cs:[rax+rax*1+0x0]
  4010a9:	00 00 00 
  4010ac:	0f 1f 40 00          	nop    DWORD PTR [rax+0x0]

00000000004010b0 <deregister_tm_clones>:
  4010b0:	b8 48 40 40 00       	mov    eax,0x404048
  4010b5:	48 3d 48 40 40 00    	cmp    rax,0x404048
  4010bb:	74 13                	je     4010d0 <deregister_tm_clones+0x20>
  4010bd:	b8 00 00 00 00       	mov    eax,0x0
  4010c2:	48 85 c0             	test   rax,rax
  4010c5:	74 09                	je     4010d0 <deregister_tm_clones+0x20>
  4010c7:	bf 48 40 40 00       	mov    edi,0x404048
  4010cc:	ff e0                	jmp    rax
  4010ce:	66 90                	xchg   ax,ax
  4010d0:	c3                   	ret    
  4010d1:	66 66 2e 0f 1f 84 00 	data16 nop WORD PTR cs:[rax+rax*1+0x0]
  4010d8:	00 00 00 00 
  4010dc:	0f 1f 40 00          	nop    DWORD PTR [rax+0x0]

00000000004010e0 <register_tm_clones>:
  4010e0:	be 48 40 40 00       	mov    esi,0x404048
  4010e5:	48 81 ee 48 40 40 00 	sub    rsi,0x404048
  4010ec:	48 c1 fe 03          	sar    rsi,0x3
  4010f0:	48 89 f0             	mov    rax,rsi
  4010f3:	48 c1 e8 3f          	shr    rax,0x3f
  4010f7:	48 01 c6             	add    rsi,rax
  4010fa:	48 d1 fe             	sar    rsi,1
  4010fd:	74 11                	je     401110 <register_tm_clones+0x30>
  4010ff:	b8 00 00 00 00       	mov    eax,0x0
  401104:	48 85 c0             	test   rax,rax
  401107:	74 07                	je     401110 <register_tm_clones+0x30>
  401109:	bf 48 40 40 00       	mov    edi,0x404048
  40110e:	ff e0                	jmp    rax
  401110:	c3                   	ret    
  401111:	66 66 2e 0f 1f 84 00 	data16 nop WORD PTR cs:[rax+rax*1+0x0]
  401118:	00 00 00 00 
  40111c:	0f 1f 40 00          	nop    DWORD PTR [rax+0x0]

0000000000401120 <__do_global_dtors_aux>:
  401120:	80 3d 21 2f 00 00 00 	cmp    BYTE PTR [rip+0x2f21],0x0        # 404048 <__TMC_END__>
  401127:	75 17                	jne    401140 <__do_global_dtors_aux+0x20>
  401129:	55                   	push   rbp
  40112a:	48 89 e5             	mov    rbp,rsp
  40112d:	e8 7e ff ff ff       	call   4010b0 <deregister_tm_clones>
  401132:	c6 05 0f 2f 00 00 01 	mov    BYTE PTR [rip+0x2f0f],0x1        # 404048 <__TMC_END__>
  401139:	5d                   	pop    rbp
  40113a:	c3                   	ret    
  40113b:	0f 1f 44 00 00       	nop    DWORD PTR [rax+rax*1+0x0]
  401140:	c3                   	ret    
  401141:	66 66 2e 0f 1f 84 00 	data16 nop WORD PTR cs:[rax+rax*1+0x0]
  401148:	00 00 00 00 
  40114c:	0f 1f 40 00          	nop    DWORD PTR [rax+0x0]

0000000000401150 <frame_dummy>:
  401150:	eb 8e                	jmp    4010e0 <register_tm_clones>

0000000000401152 <vuln>:
  401152:	55                   	push   rbp
  401153:	48 89 e5             	mov    rbp,rsp
  401156:	48 81 ec b0 00 00 00 	sub    rsp,0xb0
  40115d:	64 48 8b 04 25 28 00 	mov    rax,QWORD PTR fs:0x28
  401164:	00 00 
  401166:	48 89 45 f8          	mov    QWORD PTR [rbp-0x8],rax
  40116a:	31 c0                	xor    eax,eax
  40116c:	48 8d 3d 91 0e 00 00 	lea    rdi,[rip+0xe91]        # 402004 <_IO_stdin_used+0x4>
  401173:	e8 b8 fe ff ff       	call   401030 <puts@plt>
  401178:	48 8d 85 50 ff ff ff 	lea    rax,[rbp-0xb0]
  40117f:	48 89 c7             	mov    rdi,rax
  401182:	b8 00 00 00 00       	mov    eax,0x0
  401187:	e8 d4 fe ff ff       	call   401060 <gets@plt>
  40118c:	48 8d 3d 84 0e 00 00 	lea    rdi,[rip+0xe84]        # 402017 <_IO_stdin_used+0x17>
  401193:	b8 00 00 00 00       	mov    eax,0x0
  401198:	e8 b3 fe ff ff       	call   401050 <printf@plt>
  40119d:	48 8d 85 50 ff ff ff 	lea    rax,[rbp-0xb0]
  4011a4:	48 89 c7             	mov    rdi,rax
  4011a7:	b8 00 00 00 00       	mov    eax,0x0
  4011ac:	e8 9f fe ff ff       	call   401050 <printf@plt>
  4011b1:	48 8d 3d 66 0e 00 00 	lea    rdi,[rip+0xe66]        # 40201e <_IO_stdin_used+0x1e>
  4011b8:	e8 73 fe ff ff       	call   401030 <puts@plt>
  4011bd:	48 8d 85 50 ff ff ff 	lea    rax,[rbp-0xb0]
  4011c4:	48 89 c7             	mov    rdi,rax
  4011c7:	b8 00 00 00 00       	mov    eax,0x0
  4011cc:	e8 8f fe ff ff       	call   401060 <gets@plt>
  4011d1:	90                   	nop
  4011d2:	48 8b 45 f8          	mov    rax,QWORD PTR [rbp-0x8]
  4011d6:	64 48 33 04 25 28 00 	xor    rax,QWORD PTR fs:0x28
  4011dd:	00 00 
  4011df:	74 05                	je     4011e6 <vuln+0x94>
  4011e1:	e8 5a fe ff ff       	call   401040 <__stack_chk_fail@plt>
  4011e6:	c9                   	leave  
  4011e7:	c3                   	ret    

00000000004011e8 <main>:
  4011e8:	55                   	push   rbp
  4011e9:	48 89 e5             	mov    rbp,rsp
  4011ec:	b8 00 00 00 00       	mov    eax,0x0
  4011f1:	e8 5c ff ff ff       	call   401152 <vuln>
  4011f6:	b8 01 00 00 00       	mov    eax,0x1
  4011fb:	5d                   	pop    rbp
  4011fc:	c3                   	ret    
  4011fd:	0f 1f 00             	nop    DWORD PTR [rax]

0000000000401200 <__libc_csu_init>:
  401200:	41 57                	push   r15
  401202:	41 56                	push   r14
  401204:	49 89 d7             	mov    r15,rdx
  401207:	41 55                	push   r13
  401209:	41 54                	push   r12
  40120b:	4c 8d 25 fe 2b 00 00 	lea    r12,[rip+0x2bfe]        # 403e10 <__frame_dummy_init_array_entry>
  401212:	55                   	push   rbp
  401213:	48 8d 2d fe 2b 00 00 	lea    rbp,[rip+0x2bfe]        # 403e18 <__init_array_end>
  40121a:	53                   	push   rbx
  40121b:	41 89 fd             	mov    r13d,edi
  40121e:	49 89 f6             	mov    r14,rsi
  401221:	4c 29 e5             	sub    rbp,r12
  401224:	48 83 ec 08          	sub    rsp,0x8
  401228:	48 c1 fd 03          	sar    rbp,0x3
  40122c:	e8 cf fd ff ff       	call   401000 <_init>
  401231:	48 85 ed             	test   rbp,rbp
  401234:	74 20                	je     401256 <__libc_csu_init+0x56>
  401236:	31 db                	xor    ebx,ebx
  401238:	0f 1f 84 00 00 00 00 	nop    DWORD PTR [rax+rax*1+0x0]
  40123f:	00 
  401240:	4c 89 fa             	mov    rdx,r15
  401243:	4c 89 f6             	mov    rsi,r14
  401246:	44 89 ef             	mov    edi,r13d
  401249:	41 ff 14 dc          	call   QWORD PTR [r12+rbx*8]
  40124d:	48 83 c3 01          	add    rbx,0x1
  401251:	48 39 dd             	cmp    rbp,rbx
  401254:	75 ea                	jne    401240 <__libc_csu_init+0x40>
  401256:	48 83 c4 08          	add    rsp,0x8
  40125a:	5b                   	pop    rbx
  40125b:	5d                   	pop    rbp
  40125c:	41 5c                	pop    r12
  40125e:	41 5d                	pop    r13
  401260:	41 5e                	pop    r14
  401262:	41 5f                	pop    r15
  401264:	c3                   	ret    
  401265:	66 66 2e 0f 1f 84 00 	data16 nop WORD PTR cs:[rax+rax*1+0x0]
  40126c:	00 00 00 00 

0000000000401270 <__libc_csu_fini>:
  401270:	f3 c3                	repz ret 

Disassembly of section .fini:

0000000000401274 <_fini>:
  401274:	48 83 ec 08          	sub    rsp,0x8
  401278:	48 83 c4 08          	add    rsp,0x8
  40127c:	c3                   	ret    
